target datalayout = "e-m:e-p270:32:32-p271:32:32-p272:64:64-i64:64-i128:128-f80:128-n8:16:32:64-S128"
target triple = "x86_64-pc-linux-gnu"

%union.pthread_attr_t = type { i64, [48 x i8] }

@.str.2 = private unnamed_addr constant [57 x i8] c"ClamScanQueue: unable to start clamonacc. (bad context)\0A\00", align 1
@scan_queue_pid = external global i64, align 8
@.str.3 = private unnamed_addr constant [65 x i8] c"ClamScanQueue: Unable to start event consumer queue thread ... \0A\00", align 1

; Function Attrs: nounwind uwtable
define dso_local i32 @onas_scan_queue_start(ptr noundef %0) #0 {
  %2 = alloca i32, align 4
  %3 = alloca ptr, align 8
  %4 = alloca %union.pthread_attr_t, align 8
  %5 = alloca i32, align 4
  store ptr %0, ptr %3, align 8
  store i32 1, ptr %5, align 4
  %6 = load ptr, ptr %3, align 8
  %7 = icmp ne ptr %6, null
  br i1 %7, label %8, label %12

8:                                                ; preds = %1
  %9 = load ptr, ptr %3, align 8
  %10 = load ptr, ptr %9, align 8
  %11 = icmp ne ptr %10, null
  br i1 %11, label %14, label %12

12:                                               ; preds = %8, %1
  %13 = call i32 (i32, ptr, ...) @logg(i32 noundef 2, ptr noundef @.str.2)
  store i32 3, ptr %2, align 4
  br label %28

14:                                               ; preds = %8
  %15 = call i32 @pthread_attr_init(ptr noundef %4) #8
  %16 = icmp ne i32 %15, 0
  br i1 %16, label %17, label %18

17:                                               ; preds = %14
  store i32 22, ptr %2, align 4
  br label %28

18:                                               ; preds = %14
  %19 = call i32 @pthread_attr_setdetachstate(ptr noundef %4, i32 noundef 0) #8
  %20 = load ptr, ptr %3, align 8
  %21 = load ptr, ptr %20, align 8
  %22 = call i32 @pthread_create(ptr noundef @scan_queue_pid, ptr noundef %4, ptr noundef @onas_scan_queue_th, ptr noundef %21) #8
  store i32 %22, ptr %5, align 4
  %23 = load i32, ptr %5, align 4
  %24 = icmp ne i32 0, %23
  br i1 %24, label %25, label %27

25:                                               ; preds = %18
  %26 = call i32 (i32, ptr, ...) @logg(i32 noundef 2, ptr noundef @.str.3)
  store i32 9, ptr %2, align 4
  br label %28

27:                                               ; preds = %18
  store i32 0, ptr %2, align 4
  br label %28

28:                                               ; preds = %27, %25, %17, %12
  %29 = load i32, ptr %2, align 4
  ret i32 %29
}