; Function Attrs: nounwind uwtable
define dso_local noundef i32 @onas_scan_queue_start(ptr noundef readonly %0) local_unnamed_addr #4 {
  %2 = alloca %union.pthread_attr_t, align 8
  %.not = icmp eq ptr %0, null
  br i1 %.not, label %5, label %3

3:                                                ; preds = %1
  %4 = load ptr, ptr %0, align 8
  %.not5 = icmp eq ptr %4, null
  br i1 %.not5, label %5, label %7

5:                                                ; preds = %3, %1
  %6 = tail call i32 (i32, ptr, ...) @logg(i32 noundef 2, ptr noundef nonnull @.str.2) #9
  br label %15

7:                                                ; preds = %3
  %8 = call i32 @pthread_attr_init(ptr noundef nonnull %2) #9
  %.not6 = icmp eq i32 %8, 0
  br i1 %.not6, label %9, label %15

9:                                                ; preds = %7
  %10 = call i32 @pthread_attr_setdetachstate(ptr noundef nonnull %2, i32 noundef 0) #9
  %11 = load ptr, ptr %0, align 8
  %12 = call i32 @pthread_create(ptr noundef nonnull @scan_queue_pid, ptr noundef nonnull %2, ptr noundef nonnull @onas_scan_queue_th, ptr noundef %11) #9
  %.not7 = icmp eq i32 %12, 0
  br i1 %.not7, label %15, label %13

13:                                               ; preds = %9
  %14 = call i32 (i32, ptr, ...) @logg(i32 noundef 2, ptr noundef nonnull @.str.3) #9
  br label %15

15:                                               ; preds = %9, %7, %13, %5
  %.0 = phi i32 [ 9, %13 ], [ 3, %5 ], [ 22, %7 ], [ 0, %9 ]
  ret i32 %.0
}